; Function Attrs: mustprogress nofree norecurse nosync nounwind willreturn memory(readwrite, inaccessiblemem: none) uwtable
define internal noundef i32 @f(double %0, ptr noundef readonly captures(none) %1, ptr noundef readonly captures(none) %2, ptr noundef readonly captures(none) %3) #4 {
  %5 = load ptr, ptr %1, align 8, !tbaa !13
  %6 = getelementptr inbounds nuw i8, ptr %5, i64 16
  %7 = load ptr, ptr %6, align 8, !tbaa !16
  %8 = load double, ptr %7, align 8, !tbaa !11
  %9 = getelementptr inbounds nuw i8, ptr %7, i64 8
  %10 = load double, ptr %9, align 8, !tbaa !11
  %11 = getelementptr inbounds nuw i8, ptr %7, i64 16
  %12 = load double, ptr %11, align 8, !tbaa !11
  %13 = getelementptr inbounds nuw i8, ptr %3, i64 16
  %14 = load double, ptr %13, align 8, !tbaa !11
  %15 = getelementptr inbounds nuw i8, ptr %3, i64 24
  %16 = load double, ptr %15, align 8, !tbaa !11
  %17 = getelementptr inbounds nuw i8, ptr %3, i64 32
  %18 = load double, ptr %17, align 8, !tbaa !11
  %19 = fneg double %14
  %20 = fmul double %10, %16
  %21 = fmul double %12, %20
  %22 = tail call double @llvm.fmuladd.f64(double %19, double %8, double %21)
  %23 = load ptr, ptr %2, align 8, !tbaa !13
  %24 = getelementptr inbounds nuw i8, ptr %23, i64 16
  %25 = load ptr, ptr %24, align 8, !tbaa !16
  store double %22, ptr %25, align 8, !tbaa !11
  %26 = fmul double %10, %18
  %27 = fmul double %10, %26
  %28 = getelementptr inbounds nuw i8, ptr %25, i64 16
  store double %27, ptr %28, align 8, !tbaa !11
  %29 = fneg double %22
  %30 = fsub double %29, %27
  %31 = getelementptr inbounds nuw i8, ptr %25, i64 8
  store double %30, ptr %31, align 8, !tbaa !11
  ret i32 0
}